target datalayout = "e-m:e-p270:32:32-p271:32:32-p272:64:64-i64:64-i128:128-f80:128-n8:16:32:64-S128"
target triple = "x86_64-unknown-linux-gnu"

%struct.atomic_p_t = type { ptr }
%struct.arena_config_s = type { ptr, i8 }

@arenas = external global [0 x %struct.atomic_p_t], align 8
@arena_config_default = external constant %struct.arena_config_s, align 8

; Function Attrs: nounwind uwtable
define internal ptr @arena_get(ptr noundef %tsdn, i32 noundef %ind, i1 noundef zeroext %init_if_missing) #0 {
entry:
  %retval.i.i = alloca i32, align 4
  %mo.addr.i.i = alloca i32, align 4
  %a.addr.i = alloca ptr, align 8
  %mo.addr.i = alloca i32, align 4
  %result.i = alloca ptr, align 8
  %tsdn.addr = alloca ptr, align 8
  %ind.addr = alloca i32, align 4
  %init_if_missing.addr = alloca i8, align 1
  %ret = alloca ptr, align 8
  store ptr %tsdn, ptr %tsdn.addr, align 8
  store i32 %ind, ptr %ind.addr, align 4
  %frombool = zext i1 %init_if_missing to i8
  store i8 %frombool, ptr %init_if_missing.addr, align 1
  br label %do.body

do.body:                                          ; preds = %entry
  br label %do.end

do.end:                                           ; preds = %do.body
  %0 = load i32, ptr %ind.addr, align 4
  %idxprom = zext i32 %0 to i64
  %arrayidx = getelementptr inbounds [0 x %struct.atomic_p_t], ptr @arenas, i64 0, i64 %idxprom
  store ptr %arrayidx, ptr %a.addr.i, align 8
  store i32 1, ptr %mo.addr.i, align 4
  %1 = load ptr, ptr %a.addr.i, align 8
  %2 = load i32, ptr %mo.addr.i, align 4
  store i32 %2, ptr %mo.addr.i.i, align 4
  %3 = load i32, ptr %mo.addr.i.i, align 4
  switch i32 %3, label %sw.epilog.i.i [
    i32 0, label %sw.bb.i.i
    i32 1, label %sw.bb1.i.i
    i32 2, label %sw.bb2.i.i
    i32 3, label %sw.bb3.i.i
    i32 4, label %sw.bb4.i.i
  ]

sw.bb.i.i:                                        ; preds = %do.end
  store i32 0, ptr %retval.i.i, align 4
  br label %atomic_enum_to_builtin.exit.i

sw.bb1.i.i:                                       ; preds = %do.end
  store i32 2, ptr %retval.i.i, align 4
  br label %atomic_enum_to_builtin.exit.i

sw.bb2.i.i:                                       ; preds = %do.end
  store i32 3, ptr %retval.i.i, align 4
  br label %atomic_enum_to_builtin.exit.i

sw.bb3.i.i:                                       ; preds = %do.end
  store i32 4, ptr %retval.i.i, align 4
  br label %atomic_enum_to_builtin.exit.i

sw.bb4.i.i:                                       ; preds = %do.end
  store i32 5, ptr %retval.i.i, align 4
  br label %atomic_enum_to_builtin.exit.i

sw.epilog.i.i:                                    ; preds = %do.end
  unreachable

atomic_enum_to_builtin.exit.i:                    ; preds = %sw.bb4.i.i, %sw.bb3.i.i, %sw.bb2.i.i, %sw.bb1.i.i, %sw.bb.i.i
  %4 = load i32, ptr %retval.i.i, align 4
  switch i32 %4, label %monotonic.i [
    i32 1, label %acquire.i
    i32 2, label %acquire.i
    i32 5, label %seqcst.i
  ]

monotonic.i:                                      ; preds = %atomic_enum_to_builtin.exit.i
  %5 = load atomic i64, ptr %1 monotonic, align 8
  store i64 %5, ptr %result.i, align 8
  br label %atomic_load_p.exit

acquire.i:                                        ; preds = %atomic_enum_to_builtin.exit.i, %atomic_enum_to_builtin.exit.i
  %6 = load atomic i64, ptr %1 acquire, align 8
  store i64 %6, ptr %result.i, align 8
  br label %atomic_load_p.exit

seqcst.i:                                         ; preds = %atomic_enum_to_builtin.exit.i
  %7 = load atomic i64, ptr %1 seq_cst, align 8
  store i64 %7, ptr %result.i, align 8
  br label %atomic_load_p.exit

atomic_load_p.exit:                               ; preds = %seqcst.i, %acquire.i, %monotonic.i
  %8 = load ptr, ptr %result.i, align 8
  store ptr %8, ptr %ret, align 8
  %9 = load ptr, ptr %ret, align 8
  %cmp = icmp eq ptr %9, null
  %lnot = xor i1 %cmp, true
  %lnot1 = xor i1 %lnot, true
  %lnot.ext = zext i1 %lnot1 to i32
  %conv = sext i32 %lnot.ext to i64
  %tobool = icmp ne i64 %conv, 0
  br i1 %tobool, label %if.then, label %if.end5

if.then:                                          ; preds = %atomic_load_p.exit
  %10 = load i8, ptr %init_if_missing.addr, align 1
  %tobool2 = trunc i8 %10 to i1
  br i1 %tobool2, label %if.then3, label %if.end

if.then3:                                         ; preds = %if.then
  %11 = load ptr, ptr %tsdn.addr, align 8
  %12 = load i32, ptr %ind.addr, align 4
  %call4 = call ptr @arena_init(ptr noundef %11, i32 noundef %12, ptr noundef @arena_config_default)
  store ptr %call4, ptr %ret, align 8
  br label %if.end

if.end:                                           ; preds = %if.then3, %if.then
  br label %if.end5

if.end5:                                          ; preds = %if.end, %atomic_load_p.exit
  %13 = load ptr, ptr %ret, align 8
  ret ptr %13
}

; Function Attrs: nounwind uwtable
define internal i32 @arena_i_decay_ms_ctl_impl(ptr noundef %tsd, ptr noundef %mib, i64 noundef %miblen, ptr noundef %oldp, ptr noundef %oldlenp, ptr noundef %newp, i64 noundef %newlen, i1 noundef zeroext %dirty) #0 {
entry:
  %tsd.addr.i53 = alloca ptr, align 8
  %tsd.addr.i = alloca ptr, align 8
  %tsd.addr = alloca ptr, align 8
  %mib.addr = alloca ptr, align 8
  %miblen.addr = alloca i64, align 8
  %oldp.addr = alloca ptr, align 8
  %oldlenp.addr = alloca ptr, align 8
  %newp.addr = alloca ptr, align 8
  %newlen.addr = alloca i64, align 8
  %dirty.addr = alloca i8, align 1
  %ret = alloca i32, align 4
  %arena_ind = alloca i32, align 4
  %arena = alloca ptr, align 8
  %state = alloca i32, align 4
  %oldval = alloca i64, align 8
  %copylen = alloca i64, align 8
  store ptr %tsd, ptr %tsd.addr, align 8
  store ptr %mib, ptr %mib.addr, align 8
  store i64 %miblen, ptr %miblen.addr, align 8
  store ptr %oldp, ptr %oldp.addr, align 8
  store ptr %oldlenp, ptr %oldlenp.addr, align 8
  store ptr %newp, ptr %newp.addr, align 8
  store i64 %newlen, ptr %newlen.addr, align 8
  %frombool = zext i1 %dirty to i8
  store i8 %frombool, ptr %dirty.addr, align 1
  br label %do.body

do.body:                                          ; preds = %entry
  %0 = load ptr, ptr %mib.addr, align 8
  %arrayidx = getelementptr inbounds i64, ptr %0, i64 1
  %1 = load i64, ptr %arrayidx, align 8
  %cmp = icmp ugt i64 %1, 4294967295
  br i1 %cmp, label %if.then, label %if.end

if.then:                                          ; preds = %do.body
  store i32 14, ptr %ret, align 4
  br label %label_return

if.end:                                           ; preds = %do.body
  %2 = load ptr, ptr %mib.addr, align 8
  %arrayidx1 = getelementptr inbounds i64, ptr %2, i64 1
  %3 = load i64, ptr %arrayidx1, align 8
  %conv = trunc i64 %3 to i32
  store i32 %conv, ptr %arena_ind, align 4
  br label %do.end

do.end:                                           ; preds = %if.end
  %4 = load ptr, ptr %tsd.addr, align 8
  store ptr %4, ptr %tsd.addr.i53, align 8
  %5 = load ptr, ptr %tsd.addr.i53, align 8
  %6 = load i32, ptr %arena_ind, align 4
  %call2 = call ptr @arena_get(ptr noundef %5, i32 noundef %6, i1 noundef zeroext false)
  store ptr %call2, ptr %arena, align 8
  %7 = load ptr, ptr %arena, align 8
  %cmp3 = icmp eq ptr %7, null
  br i1 %cmp3, label %if.then5, label %if.end6

if.then5:                                         ; preds = %do.end
  store i32 14, ptr %ret, align 4
  br label %label_return

if.end6:                                          ; preds = %do.end
  %8 = load i8, ptr %dirty.addr, align 1
  %tobool = trunc i8 %8 to i1
  %cond = select i1 %tobool, i32 1, i32 2
  store i32 %cond, ptr %state, align 4
  %9 = load ptr, ptr %oldp.addr, align 8
  %cmp8 = icmp ne ptr %9, null
  br i1 %cmp8, label %land.lhs.true, label %if.end30

land.lhs.true:                                    ; preds = %if.end6
  %10 = load ptr, ptr %oldlenp.addr, align 8
  %cmp10 = icmp ne ptr %10, null
  br i1 %cmp10, label %if.then12, label %if.end30

if.then12:                                        ; preds = %land.lhs.true
  %11 = load ptr, ptr %arena, align 8
  %12 = load i32, ptr %state, align 4
  %call13 = call i64 @arena_decay_ms_get(ptr noundef %11, i32 noundef %12)
  store i64 %call13, ptr %oldval, align 8
  br label %do.body14

do.body14:                                        ; preds = %if.then12
  %13 = load ptr, ptr %oldp.addr, align 8
  %cmp15 = icmp ne ptr %13, null
  br i1 %cmp15, label %land.lhs.true17, label %if.end28

land.lhs.true17:                                  ; preds = %do.body14
  %14 = load ptr, ptr %oldlenp.addr, align 8
  %cmp18 = icmp ne ptr %14, null
  br i1 %cmp18, label %if.then20, label %if.end28

if.then20:                                        ; preds = %land.lhs.true17
  %15 = load ptr, ptr %oldlenp.addr, align 8
  %16 = load i64, ptr %15, align 8
  %cmp21 = icmp ne i64 %16, 8
  br i1 %cmp21, label %if.then23, label %if.end27

if.then23:                                        ; preds = %if.then20
  %17 = load ptr, ptr %oldlenp.addr, align 8
  %18 = load i64, ptr %17, align 8
  %cmp24 = icmp ule i64 8, %18
  br i1 %cmp24, label %cond.true, label %cond.false

cond.true:                                        ; preds = %if.then23
  br label %cond.end

cond.false:                                       ; preds = %if.then23
  %19 = load ptr, ptr %oldlenp.addr, align 8
  %20 = load i64, ptr %19, align 8
  br label %cond.end

cond.end:                                         ; preds = %cond.false, %cond.true
  %cond26 = phi i64 [ 8, %cond.true ], [ %20, %cond.false ]
  store i64 %cond26, ptr %copylen, align 8
  %21 = load ptr, ptr %oldp.addr, align 8
  %22 = load i64, ptr %copylen, align 8
  call void @llvm.memcpy.p0.p0.i64(ptr align 1 %21, ptr align 1 %oldval, i64 %22, i1 false)
  %23 = load i64, ptr %copylen, align 8
  %24 = load ptr, ptr %oldlenp.addr, align 8
  store i64 %23, ptr %24, align 8
  store i32 22, ptr %ret, align 4
  br label %label_return

if.end27:                                         ; preds = %if.then20
  %25 = load i64, ptr %oldval, align 8
  %26 = load ptr, ptr %oldp.addr, align 8
  store i64 %25, ptr %26, align 8
  br label %if.end28

if.end28:                                         ; preds = %if.end27, %land.lhs.true17, %do.body14
  br label %do.end29

do.end29:                                         ; preds = %if.end28
  br label %if.end30

if.end30:                                         ; preds = %do.end29, %land.lhs.true, %if.end6
  %27 = load ptr, ptr %newp.addr, align 8
  %cmp31 = icmp ne ptr %27, null
  br i1 %cmp31, label %if.then33, label %if.end52

if.then33:                                        ; preds = %if.end30
  %28 = load i64, ptr %newlen.addr, align 8
  %cmp34 = icmp ne i64 %28, 8
  br i1 %cmp34, label %if.then36, label %if.end37

if.then36:                                        ; preds = %if.then33
  store i32 22, ptr %ret, align 4
  br label %label_return

if.end37:                                         ; preds = %if.then33
  %29 = load i32, ptr %arena_ind, align 4
  %call38 = call zeroext i1 @arena_is_huge(i32 noundef %29)
  br i1 %call38, label %land.lhs.true40, label %if.end47

land.lhs.true40:                                  ; preds = %if.end37
  %30 = load ptr, ptr %newp.addr, align 8
  %31 = load i64, ptr %30, align 8
  %cmp41 = icmp sgt i64 %31, 0
  br i1 %cmp41, label %if.then43, label %if.end47

if.then43:                                        ; preds = %land.lhs.true40
  %32 = load ptr, ptr %tsd.addr, align 8
  %33 = load i32, ptr %arena_ind, align 4
  %call44 = call zeroext i1 @background_thread_create(ptr noundef %32, i32 noundef %33)
  br i1 %call44, label %if.then45, label %if.end46

if.then45:                                        ; preds = %if.then43
  store i32 14, ptr %ret, align 4
  br label %label_return

if.end46:                                         ; preds = %if.then43
  br label %if.end47

if.end47:                                         ; preds = %if.end46, %land.lhs.true40, %if.end37
  %34 = load ptr, ptr %tsd.addr, align 8
  store ptr %34, ptr %tsd.addr.i, align 8
  %35 = load ptr, ptr %tsd.addr.i, align 8
  %36 = load ptr, ptr %arena, align 8
  %37 = load i32, ptr %state, align 4
  %38 = load ptr, ptr %newp.addr, align 8
  %39 = load i64, ptr %38, align 8
  %call49 = call zeroext i1 @arena_decay_ms_set(ptr noundef %35, ptr noundef %36, i32 noundef %37, i64 noundef %39)
  br i1 %call49, label %if.then50, label %if.end51

if.then50:                                        ; preds = %if.end47
  store i32 14, ptr %ret, align 4
  br label %label_return

if.end51:                                         ; preds = %if.end47
  br label %if.end52

if.end52:                                         ; preds = %if.end51, %if.end30
  store i32 0, ptr %ret, align 4
  br label %label_return

label_return:                                     ; preds = %if.end52, %if.then50, %if.then45, %if.then36, %cond.end, %if.then5, %if.then
  %40 = load i32, ptr %ret, align 4
  ret i32 %40
}

; Function Attrs: nounwind uwtable
define internal i32 @arena_i_dirty_decay_ms_ctl(ptr noundef %tsd, ptr noundef %mib, i64 noundef %miblen, ptr noundef %oldp, ptr noundef %oldlenp, ptr noundef %newp, i64 noundef %newlen) #0 {
entry:
  %tsd.addr = alloca ptr, align 8
  %mib.addr = alloca ptr, align 8
  %miblen.addr = alloca i64, align 8
  %oldp.addr = alloca ptr, align 8
  %oldlenp.addr = alloca ptr, align 8
  %newp.addr = alloca ptr, align 8
  %newlen.addr = alloca i64, align 8
  store ptr %tsd, ptr %tsd.addr, align 8
  store ptr %mib, ptr %mib.addr, align 8
  store i64 %miblen, ptr %miblen.addr, align 8
  store ptr %oldp, ptr %oldp.addr, align 8
  store ptr %oldlenp, ptr %oldlenp.addr, align 8
  store ptr %newp, ptr %newp.addr, align 8
  store i64 %newlen, ptr %newlen.addr, align 8
  %0 = load ptr, ptr %tsd.addr, align 8
  %1 = load ptr, ptr %mib.addr, align 8
  %2 = load i64, ptr %miblen.addr, align 8
  %3 = load ptr, ptr %oldp.addr, align 8
  %4 = load ptr, ptr %oldlenp.addr, align 8
  %5 = load ptr, ptr %newp.addr, align 8
  %6 = load i64, ptr %newlen.addr, align 8
  %call = call i32 @arena_i_decay_ms_ctl_impl(ptr noundef %0, ptr noundef %1, i64 noundef %2, ptr noundef %3, ptr noundef %4, ptr noundef %5, i64 noundef %6, i1 noundef zeroext true)
  ret i32 %call
}